; Function Attrs: mustprogress nounwind uwtable
define hidden void @_ZN14JfrTypeManager16write_checkpointEP6ThreadmP7oopDesc(ptr noundef %0, i64 noundef %1, ptr noundef %2) local_unnamed_addr #0 align 2 {
  %4 = alloca %class.JfrCheckpointWriter, align 8
  %5 = alloca %class.JfrThreadConstant, align 8
  %6 = tail call align 8 ptr @llvm.threadlocal.address.p0(ptr align 8 @_ZN6Thread12_thr_currentE)
  %7 = load ptr, ptr %6, align 8
  %.not = icmp eq ptr %2, null
  %8 = getelementptr inbounds i8, ptr %7, i64 800
  %9 = load ptr, ptr %8, align 8
  %10 = getelementptr inbounds i8, ptr %9, i64 24
  %11 = load ptr, ptr %10, align 8
  %12 = getelementptr inbounds i8, ptr %9, i64 32
  %13 = load ptr, ptr %12, align 8
  %14 = getelementptr inbounds i8, ptr %9, i64 40
  %15 = load ptr, ptr %14, align 8
  %16 = getelementptr inbounds i8, ptr %9, i64 8
  %17 = load i64, ptr %16, align 8
  %18 = select i1 %.not, i32 1, i32 2
  call void @_ZN19JfrCheckpointWriterC1EP6Threadb17JfrCheckpointType23JfrCheckpointBufferKind(ptr noundef nonnull align 8 dereferenceable(73) %4, ptr noundef %7, i1 noundef zeroext true, i32 noundef 8, i32 noundef %18) #8
  br i1 %.not, label %.split8, label %.split

.split:                                           ; preds = %3
  call void @_ZN19JfrCheckpointWriter9set_countEj(ptr noundef nonnull align 8 dereferenceable(73) %4, i32 noundef 1) #8
  br label %19

.split8:                                          ; preds = %3
  call void @_ZN19JfrCheckpointWriter10write_typeE9JfrTypeId(ptr noundef nonnull align 8 dereferenceable(73) %4, i32 noundef 179) #8
  call void @_ZN19JfrCheckpointWriter11write_countEj(ptr noundef nonnull align 8 dereferenceable(73) %4, i32 noundef 1) #8
  br label %19

19:                                               ; preds = %.split8, %.split
  store ptr getelementptr inbounds inrange(-16, 32) (i8, ptr @_ZTV17JfrThreadConstant, i64 16), ptr %5, align 8
  %20 = getelementptr inbounds i8, ptr %5, i64 8
  store ptr %0, ptr %20, align 8
  %21 = getelementptr inbounds i8, ptr %5, i64 16
  store i64 %1, ptr %21, align 8
  %22 = getelementptr inbounds i8, ptr %5, i64 24
  store ptr %2, ptr %22, align 8
  %23 = getelementptr inbounds i8, ptr %5, i64 32
  store ptr null, ptr %23, align 8
  %24 = getelementptr inbounds i8, ptr %5, i64 40
  store i32 -1, ptr %24, align 8
  call void @_ZN17JfrThreadConstant9serializeER19JfrCheckpointWriter(ptr noundef nonnull align 8 dereferenceable(44) %5, ptr noundef nonnull align 8 dereferenceable(73) %4) #8
  call void @_ZN19JfrCheckpointWriterD1Ev(ptr noundef nonnull align 8 dereferenceable(73) %4) #8
  %25 = load ptr, ptr %11, align 8
  %.not.i.i.i.i = icmp eq ptr %25, null
  br i1 %.not.i.i.i.i, label %27, label %26

26:                                               ; preds = %19
  call void @_ZN5Arena17set_size_in_bytesEm(ptr noundef nonnull align 8 dereferenceable(48) %9, i64 noundef %17) #8
  call void @_ZN5Chunk9next_chopEPS_(ptr noundef nonnull %11) #8
  br label %27

27:                                               ; preds = %26, %19
  %28 = load ptr, ptr %12, align 8
  %.not8.i.i.i.i = icmp eq ptr %28, %13
  br i1 %.not8.i.i.i.i, label %_ZN12ResourceMarkD2Ev.exit, label %29

29:                                               ; preds = %27
  store ptr %11, ptr %10, align 8
  store ptr %13, ptr %12, align 8
  store ptr %15, ptr %14, align 8
  br label %_ZN12ResourceMarkD2Ev.exit

_ZN12ResourceMarkD2Ev.exit:                       ; preds = %27, %29
  ret void
}